target datalayout = "e-m:e-p270:32:32-p271:32:32-p272:64:64-i64:64-i128:128-f80:128-n8:16:32:64-S128"
target triple = "x86_64-pc-linux-gnu"

%struct.ossl_cmp_msg_st = type { ptr, ptr, ptr, ptr, ptr, ptr }
%struct.ossl_cmp_ctx_st = type { ptr, ptr, ptr, i32, ptr, ptr, ptr, ptr, ptr, i32, ptr, ptr, i32, i32, i32, i32, i64, ptr, ptr, i32, i32, ptr, ptr, ptr, ptr, ptr, i32, i32, i32, ptr, ptr, ptr, ptr, ptr, i64, ptr, i32, i32, ptr, ptr, ptr, ptr, ptr, ptr, ptr, ptr, i32, i32, ptr, ptr, i32, ptr, ptr, i32, ptr, ptr, i32, i32, ptr, ptr, i32, i32, ptr, ptr, i32, ptr, i32, ptr, i32, ptr, ptr, ptr, ptr, ptr, ptr }

@.str = private unnamed_addr constant [36 x i8] c"../openssl/crypto/cmp/cmp_protect.c\00", align 1
@.str.2 = private unnamed_addr constant [6 x i8] c"DEBUG\00", align 1
@.str.3 = private unnamed_addr constant [3 x i8] c"%s\00", align 1
@__func__.ossl_cmp_msg_add_extraCerts = private unnamed_addr constant [28 x i8] c"ossl_cmp_msg_add_extraCerts\00", align 1
@.str.8 = private unnamed_addr constant [42 x i8] c"fallback: adding just own CMP signer cert\00", align 1

; Function Attrs: inlinehint nounwind uwtable
define internal ptr @ossl_check_X509_sk_type(ptr noundef %0) #6 {
  %2 = alloca ptr, align 8
  store ptr %0, ptr %2, align 8, !tbaa !65
  %3 = load ptr, ptr %2, align 8, !tbaa !65
  ret ptr %3
}

; Function Attrs: inlinehint nounwind uwtable
define internal ptr @ossl_check_const_X509_sk_type(ptr noundef %0) #6 {
  %2 = alloca ptr, align 8
  store ptr %0, ptr %2, align 8, !tbaa !65
  %3 = load ptr, ptr %2, align 8, !tbaa !65
  ret ptr %3
}

; Function Attrs: nounwind uwtable
define i32 @ossl_cmp_msg_add_extraCerts(ptr noundef %0, ptr noundef %1) #0 {
  %3 = alloca i32, align 4
  %4 = alloca ptr, align 8
  %5 = alloca ptr, align 8
  %6 = alloca i32, align 4
  %7 = alloca i32, align 4
  store ptr %0, ptr %4, align 8, !tbaa !3
  store ptr %1, ptr %5, align 8, !tbaa !8
  %8 = load ptr, ptr %4, align 8, !tbaa !3
  %9 = icmp ne ptr %8, null
  br i1 %9, label %10, label %13

10:                                               ; preds = %2
  %11 = load ptr, ptr %5, align 8, !tbaa !8
  %12 = icmp ne ptr %11, null
  br label %13

13:                                               ; preds = %10, %2
  %14 = phi i1 [ false, %2 ], [ %12, %10 ]
  %15 = zext i1 %14 to i32
  %16 = icmp ne i32 %15, 0
  %17 = xor i1 %16, true
  %18 = xor i1 %17, true
  %19 = zext i1 %18 to i32
  %20 = sext i32 %19 to i64
  %21 = call i64 @llvm.expect.i64(i64 %20, i64 1)
  %22 = icmp ne i64 %21, 0
  br i1 %22, label %24, label %23

23:                                               ; preds = %13
  store i32 0, ptr %3, align 4
  br label %102

24:                                               ; preds = %13
  %25 = load ptr, ptr %4, align 8, !tbaa !3
  %26 = getelementptr inbounds nuw %struct.ossl_cmp_ctx_st, ptr %25, i32 0, i32 28
  %27 = load i32, ptr %26, align 8, !tbaa !62
  %28 = icmp ne i32 %27, 0
  br i1 %28, label %78, label %29

29:                                               ; preds = %24
  %30 = load ptr, ptr %4, align 8, !tbaa !3
  %31 = getelementptr inbounds nuw %struct.ossl_cmp_ctx_st, ptr %30, i32 0, i32 33
  %32 = load ptr, ptr %31, align 8, !tbaa !37
  %33 = icmp eq ptr %32, null
  br i1 %33, label %34, label %78

34:                                               ; preds = %29
  %35 = load ptr, ptr %4, align 8, !tbaa !3
  %36 = getelementptr inbounds nuw %struct.ossl_cmp_ctx_st, ptr %35, i32 0, i32 29
  %37 = load ptr, ptr %36, align 8, !tbaa !60
  %38 = icmp ne ptr %37, null
  br i1 %38, label %39, label %78

39:                                               ; preds = %34
  %40 = load ptr, ptr %4, align 8, !tbaa !3
  %41 = getelementptr inbounds nuw %struct.ossl_cmp_ctx_st, ptr %40, i32 0, i32 31
  %42 = load ptr, ptr %41, align 8, !tbaa !58
  %43 = icmp ne ptr %42, null
  br i1 %43, label %44, label %78

44:                                               ; preds = %39
  call void @llvm.lifetime.start.p0(i64 4, ptr %6) #7
  store i32 15, ptr %6, align 4, !tbaa !15
  %45 = load ptr, ptr %4, align 8, !tbaa !3
  call void @ossl_cmp_set_own_chain(ptr noundef %45)
  %46 = load ptr, ptr %4, align 8, !tbaa !3
  %47 = getelementptr inbounds nuw %struct.ossl_cmp_ctx_st, ptr %46, i32 0, i32 30
  %48 = load ptr, ptr %47, align 8, !tbaa !59
  %49 = icmp ne ptr %48, null
  br i1 %49, label %50, label %61

50:                                               ; preds = %44
  %51 = load ptr, ptr %5, align 8, !tbaa !8
  %52 = getelementptr inbounds nuw %struct.ossl_cmp_msg_st, ptr %51, i32 0, i32 3
  %53 = load ptr, ptr %4, align 8, !tbaa !3
  %54 = getelementptr inbounds nuw %struct.ossl_cmp_ctx_st, ptr %53, i32 0, i32 30
  %55 = load ptr, ptr %54, align 8, !tbaa !59
  %56 = load i32, ptr %6, align 4, !tbaa !15
  %57 = call i32 @ossl_x509_add_certs_new(ptr noundef %52, ptr noundef %55, i32 noundef %56)
  %58 = icmp ne i32 %57, 0
  br i1 %58, label %60, label %59

59:                                               ; preds = %50
  store i32 0, ptr %3, align 4
  store i32 1, ptr %7, align 4
  br label %75

60:                                               ; preds = %50
  br label %74

61:                                               ; preds = %44
  %62 = load ptr, ptr %5, align 8, !tbaa !8
  %63 = getelementptr inbounds nuw %struct.ossl_cmp_msg_st, ptr %62, i32 0, i32 3
  %64 = load ptr, ptr %4, align 8, !tbaa !3
  %65 = getelementptr inbounds nuw %struct.ossl_cmp_ctx_st, ptr %64, i32 0, i32 29
  %66 = load ptr, ptr %65, align 8, !tbaa !60
  %67 = load i32, ptr %6, align 4, !tbaa !15
  %68 = call i32 @ossl_x509_add_cert_new(ptr noundef %63, ptr noundef %66, i32 noundef %67)
  %69 = icmp ne i32 %68, 0
  br i1 %69, label %71, label %70

70:                                               ; preds = %61
  store i32 0, ptr %3, align 4
  store i32 1, ptr %7, align 4
  br label %75

71:                                               ; preds = %61
  %72 = load ptr, ptr %4, align 8, !tbaa !3
  %73 = call i32 (i32, ptr, ptr, ptr, i32, ptr, ptr, ...) @ossl_cmp_print_log(i32 noundef 7, ptr noundef %72, ptr noundef @__func__.ossl_cmp_msg_add_extraCerts, ptr noundef @.str, i32 noundef 172, ptr noundef @.str.2, ptr noundef @.str.3, ptr noundef @.str.8)
  br label %74

74:                                               ; preds = %71, %60
  store i32 0, ptr %7, align 4
  br label %75

75:                                               ; preds = %74, %70, %59
  call void @llvm.lifetime.end.p0(i64 4, ptr %6) #7
  %76 = load i32, ptr %7, align 4
  switch i32 %76, label %104 [
    i32 0, label %77
    i32 1, label %102
  ]

77:                                               ; preds = %75
  br label %78

78:                                               ; preds = %77, %39, %34, %29, %24
  %79 = load ptr, ptr %5, align 8, !tbaa !8
  %80 = getelementptr inbounds nuw %struct.ossl_cmp_msg_st, ptr %79, i32 0, i32 3
  %81 = load ptr, ptr %4, align 8, !tbaa !3
  %82 = getelementptr inbounds nuw %struct.ossl_cmp_ctx_st, ptr %81, i32 0, i32 48
  %83 = load ptr, ptr %82, align 8, !tbaa !63
  %84 = call i32 @ossl_x509_add_certs_new(ptr noundef %80, ptr noundef %83, i32 noundef 5)
  %85 = icmp ne i32 %84, 0
  br i1 %85, label %87, label %86

86:                                               ; preds = %78
  store i32 0, ptr %3, align 4
  br label %102

87:                                               ; preds = %78
  %88 = load ptr, ptr %5, align 8, !tbaa !8
  %89 = getelementptr inbounds nuw %struct.ossl_cmp_msg_st, ptr %88, i32 0, i32 3
  %90 = load ptr, ptr %89, align 8, !tbaa !64
  %91 = call ptr @ossl_check_const_X509_sk_type(ptr noundef %90)
  %92 = call i32 @OPENSSL_sk_num(ptr noundef %91)
  %93 = icmp eq i32 %92, 0
  br i1 %93, label %94, label %101

94:                                               ; preds = %87
  %95 = load ptr, ptr %5, align 8, !tbaa !8
  %96 = getelementptr inbounds nuw %struct.ossl_cmp_msg_st, ptr %95, i32 0, i32 3
  %97 = load ptr, ptr %96, align 8, !tbaa !64
  %98 = call ptr @ossl_check_X509_sk_type(ptr noundef %97)
  call void @OPENSSL_sk_free(ptr noundef %98)
  %99 = load ptr, ptr %5, align 8, !tbaa !8
  %100 = getelementptr inbounds nuw %struct.ossl_cmp_msg_st, ptr %99, i32 0, i32 3
  store ptr null, ptr %100, align 8, !tbaa !64
  br label %101

101:                                              ; preds = %94, %87
  store i32 1, ptr %3, align 4
  br label %102

102:                                              ; preds = %101, %86, %75, %23
  %103 = load i32, ptr %3, align 4
  ret i32 %103

104:                                              ; preds = %75
  unreachable
}