; Function Attrs: nounwind uwtable
define range(i32 0, 2) i32 @ossl_cmp_msg_add_extraCerts(ptr noundef %0, ptr noundef %1) local_unnamed_addr #0 {
  %3 = icmp ne ptr %0, null
  %4 = icmp ne ptr %1, null
  %5 = and i1 %3, %4
  br i1 %5, label %6, label %.thread, !prof !11

6:                                                ; preds = %2
  %7 = getelementptr inbounds nuw i8, ptr %0, i64 192
  %8 = load i32, ptr %7, align 8, !tbaa !56
  %.not = icmp eq i32 %8, 0
  br i1 %.not, label %9, label %30

9:                                                ; preds = %6
  %10 = getelementptr inbounds nuw i8, ptr %0, i64 232
  %11 = load ptr, ptr %10, align 8, !tbaa !31
  %12 = icmp eq ptr %11, null
  br i1 %12, label %13, label %30

13:                                               ; preds = %9
  %14 = getelementptr inbounds nuw i8, ptr %0, i64 200
  %15 = load ptr, ptr %14, align 8, !tbaa !54
  %.not25 = icmp eq ptr %15, null
  br i1 %.not25, label %30, label %16

16:                                               ; preds = %13
  %17 = getelementptr inbounds nuw i8, ptr %0, i64 216
  %18 = load ptr, ptr %17, align 8, !tbaa !51
  %.not26 = icmp eq ptr %18, null
  br i1 %.not26, label %30, label %19

19:                                               ; preds = %16
  tail call void @ossl_cmp_set_own_chain(ptr noundef nonnull %0)
  %20 = getelementptr inbounds nuw i8, ptr %0, i64 208
  %21 = load ptr, ptr %20, align 8, !tbaa !53
  %.not27 = icmp eq ptr %21, null
  %22 = getelementptr inbounds nuw i8, ptr %1, i64 24
  br i1 %.not27, label %25, label %23

23:                                               ; preds = %19
  %24 = tail call i32 @ossl_x509_add_certs_new(ptr noundef nonnull %22, ptr noundef nonnull %21, i32 noundef 15) #5
  %.not29 = icmp eq i32 %24, 0
  br i1 %.not29, label %.thread, label %30

25:                                               ; preds = %19
  %26 = load ptr, ptr %14, align 8, !tbaa !54
  %27 = tail call i32 @ossl_x509_add_cert_new(ptr noundef nonnull %22, ptr noundef %26, i32 noundef 15) #5
  %.not28 = icmp eq i32 %27, 0
  br i1 %.not28, label %.thread, label %28

28:                                               ; preds = %25
  %29 = tail call i32 (i32, ptr, ptr, ptr, i32, ptr, ptr, ...) @ossl_cmp_print_log(i32 noundef 7, ptr noundef nonnull %0, ptr noundef nonnull @__func__.ossl_cmp_msg_add_extraCerts, ptr noundef nonnull @.str, i32 noundef 172, ptr noundef nonnull @.str.2, ptr noundef nonnull @.str.3, ptr noundef nonnull @.str.8) #5
  br label %30

30:                                               ; preds = %23, %28, %16, %13, %9, %6
  %31 = getelementptr inbounds nuw i8, ptr %1, i64 24
  %32 = getelementptr inbounds nuw i8, ptr %0, i64 336
  %33 = load ptr, ptr %32, align 8, !tbaa !57
  %34 = tail call i32 @ossl_x509_add_certs_new(ptr noundef nonnull %31, ptr noundef %33, i32 noundef 5) #5
  %.not30 = icmp eq i32 %34, 0
  br i1 %.not30, label %.thread, label %35

35:                                               ; preds = %30
  %36 = load ptr, ptr %31, align 8, !tbaa !58
  %37 = tail call i32 @OPENSSL_sk_num(ptr noundef %36) #5
  %38 = icmp eq i32 %37, 0
  br i1 %38, label %39, label %.thread

39:                                               ; preds = %35
  %40 = load ptr, ptr %31, align 8, !tbaa !58
  tail call void @OPENSSL_sk_free(ptr noundef %40) #5
  store ptr null, ptr %31, align 8, !tbaa !58
  br label %.thread

.thread:                                          ; preds = %25, %23, %35, %39, %30, %2
  %.021 = phi i32 [ 0, %2 ], [ 0, %30 ], [ 1, %39 ], [ 1, %35 ], [ 0, %23 ], [ 0, %25 ]
  ret i32 %.021
}